target datalayout = "e-m:e-p270:32:32-p271:32:32-p272:64:64-i64:64-i128:128-f80:128-n8:16:32:64-S128"
target triple = "x86_64-pc-linux-gnu"

%struct.FunctionCallInfoBaseData = type { ptr, ptr, ptr, i32, i8, i16, [0 x %struct.NullableDatum] }
%struct.NullableDatum = type { i64, i8 }
%struct.FmgrInfo = type { ptr, i32, i16, i8, i8, i8, ptr, ptr, ptr }
%struct.ArrayType = type { i32, i32, i32, i32 }
%struct.TypeCacheEntry = type { i32, i32, i16, i8, i8, i8, i8, i32, i32, i32, i32, i32, i32, i32, i32, i32, i32, i32, i32, i32, i32, %struct.FmgrInfo, %struct.FmgrInfo, %struct.FmgrInfo, %struct.FmgrInfo, ptr, i64, ptr, i32, i32, %struct.FmgrInfo, %struct.FmgrInfo, %struct.FmgrInfo, ptr, i32, i32, ptr, i32, ptr, ptr }

@.str.1 = private unnamed_addr constant [18 x i8] c"array_userfuncs.c\00", align 1
@.str.16 = private unnamed_addr constant [37 x i8] c"sample size must be between 0 and %d\00", align 1
@__func__.array_sample = private unnamed_addr constant [13 x i8] c"array_sample\00", align 1

; Function Attrs: inlinehint nounwind uwtable
define internal i64 @PointerGetDatum(ptr noundef %0) #2 {
  %2 = alloca ptr, align 8
  store ptr %0, ptr %2, align 8
  %3 = load ptr, ptr %2, align 8
  %4 = ptrtoint ptr %3 to i64
  ret i64 %4
}

; Function Attrs: inlinehint nounwind uwtable
define internal i32 @DatumGetInt32(i64 noundef %0) #2 {
  %2 = alloca i64, align 8
  store i64 %0, ptr %2, align 8
  %3 = load i64, ptr %2, align 8
  %4 = trunc i64 %3 to i32
  ret i32 %4
}

; Function Attrs: inlinehint nounwind uwtable
define internal ptr @DatumGetPointer(i64 noundef %0) #2 {
  %2 = alloca i64, align 8
  store i64 %0, ptr %2, align 8
  %3 = load i64, ptr %2, align 8
  %4 = inttoptr i64 %3 to ptr
  ret ptr %4
}

; Function Attrs: nounwind uwtable
define dso_local i64 @array_sample(ptr noundef %0) #0 {
  %2 = alloca ptr, align 8
  %3 = alloca ptr, align 8
  %4 = alloca i32, align 4
  %5 = alloca ptr, align 8
  %6 = alloca i32, align 4
  %7 = alloca ptr, align 8
  %8 = alloca i32, align 4
  store ptr %0, ptr %2, align 8
  call void @llvm.lifetime.start.p0(i64 8, ptr %3) #7
  %9 = load ptr, ptr %2, align 8
  %10 = getelementptr inbounds nuw %struct.FunctionCallInfoBaseData, ptr %9, i32 0, i32 6
  %11 = getelementptr inbounds [0 x %struct.NullableDatum], ptr %10, i64 0, i64 0
  %12 = getelementptr inbounds nuw %struct.NullableDatum, ptr %11, i32 0, i32 0
  %13 = load i64, ptr %12, align 8
  %14 = call ptr @DatumGetPointer(i64 noundef %13)
  %15 = call ptr @pg_detoast_datum(ptr noundef %14)
  store ptr %15, ptr %3, align 8
  call void @llvm.lifetime.start.p0(i64 4, ptr %4) #7
  %16 = load ptr, ptr %2, align 8
  %17 = getelementptr inbounds nuw %struct.FunctionCallInfoBaseData, ptr %16, i32 0, i32 6
  %18 = getelementptr inbounds [0 x %struct.NullableDatum], ptr %17, i64 0, i64 1
  %19 = getelementptr inbounds nuw %struct.NullableDatum, ptr %18, i32 0, i32 0
  %20 = load i64, ptr %19, align 8
  %21 = call i32 @DatumGetInt32(i64 noundef %20)
  store i32 %21, ptr %4, align 4
  call void @llvm.lifetime.start.p0(i64 8, ptr %5) #7
  call void @llvm.lifetime.start.p0(i64 4, ptr %6) #7
  call void @llvm.lifetime.start.p0(i64 8, ptr %7) #7
  call void @llvm.lifetime.start.p0(i64 4, ptr %8) #7
  %22 = load ptr, ptr %3, align 8
  %23 = getelementptr inbounds nuw %struct.ArrayType, ptr %22, i32 0, i32 1
  %24 = load i32, ptr %23, align 4
  %25 = icmp slt i32 %24, 1
  br i1 %25, label %26, label %27

26:                                               ; preds = %1
  br label %32

27:                                               ; preds = %1
  %28 = load ptr, ptr %3, align 8
  %29 = getelementptr inbounds nuw i8, ptr %28, i64 16
  %30 = getelementptr inbounds i32, ptr %29, i64 0
  %31 = load i32, ptr %30, align 4
  br label %32

32:                                               ; preds = %27, %26
  %33 = phi i32 [ 0, %26 ], [ %31, %27 ]
  store i32 %33, ptr %8, align 4
  %34 = load i32, ptr %4, align 4
  %35 = icmp slt i32 %34, 0
  br i1 %35, label %40, label %36

36:                                               ; preds = %32
  %37 = load i32, ptr %4, align 4
  %38 = load i32, ptr %8, align 4
  %39 = icmp sgt i32 %37, %38
  br i1 %39, label %40, label %53

40:                                               ; preds = %36, %32
  br label %41

41:                                               ; preds = %40
  br i1 true, label %42, label %44

42:                                               ; preds = %41
  %43 = call zeroext i1 @errstart_cold(i32 noundef 21, ptr noundef null) #8
  br i1 %43, label %46, label %50

44:                                               ; preds = %41
  %45 = call zeroext i1 @errstart(i32 noundef 21, ptr noundef null)
  br i1 %45, label %46, label %50

46:                                               ; preds = %44, %42
  %47 = call i32 @errcode(i32 noundef 50856066)
  %48 = load i32, ptr %8, align 4
  %49 = call i32 (ptr, ...) @errmsg(ptr noundef @.str.16, i32 noundef %48)
  call void @errfinish(ptr noundef @.str.1, i32 noundef 1735, ptr noundef @__func__.array_sample)
  br label %50

50:                                               ; preds = %46, %44, %42
  unreachable

51:                                               ; No predecessors!
  br label %52

52:                                               ; preds = %51
  br label %53

53:                                               ; preds = %52, %36
  %54 = load ptr, ptr %3, align 8
  %55 = getelementptr inbounds nuw %struct.ArrayType, ptr %54, i32 0, i32 3
  %56 = load i32, ptr %55, align 4
  store i32 %56, ptr %6, align 4
  %57 = load ptr, ptr %2, align 8
  %58 = getelementptr inbounds nuw %struct.FunctionCallInfoBaseData, ptr %57, i32 0, i32 0
  %59 = load ptr, ptr %58, align 8
  %60 = getelementptr inbounds nuw %struct.FmgrInfo, ptr %59, i32 0, i32 6
  %61 = load ptr, ptr %60, align 8
  store ptr %61, ptr %7, align 8
  %62 = load ptr, ptr %7, align 8
  %63 = icmp eq ptr %62, null
  br i1 %63, label %70, label %64

64:                                               ; preds = %53
  %65 = load ptr, ptr %7, align 8
  %66 = getelementptr inbounds nuw %struct.TypeCacheEntry, ptr %65, i32 0, i32 0
  %67 = load i32, ptr %66, align 8
  %68 = load i32, ptr %6, align 4
  %69 = icmp ne i32 %67, %68
  br i1 %69, label %70, label %78

70:                                               ; preds = %64, %53
  %71 = load i32, ptr %6, align 4
  %72 = call ptr @lookup_type_cache(i32 noundef %71, i32 noundef 0)
  store ptr %72, ptr %7, align 8
  %73 = load ptr, ptr %7, align 8
  %74 = load ptr, ptr %2, align 8
  %75 = getelementptr inbounds nuw %struct.FunctionCallInfoBaseData, ptr %74, i32 0, i32 0
  %76 = load ptr, ptr %75, align 8
  %77 = getelementptr inbounds nuw %struct.FmgrInfo, ptr %76, i32 0, i32 6
  store ptr %73, ptr %77, align 8
  br label %78

78:                                               ; preds = %70, %64
  %79 = load ptr, ptr %3, align 8
  %80 = load i32, ptr %4, align 4
  %81 = load i32, ptr %6, align 4
  %82 = load ptr, ptr %7, align 8
  %83 = call ptr @array_shuffle_n(ptr noundef %79, i32 noundef %80, i1 noundef zeroext false, i32 noundef %81, ptr noundef %82)
  store ptr %83, ptr %5, align 8
  %84 = load ptr, ptr %5, align 8
  %85 = call i64 @PointerGetDatum(ptr noundef %84)
  call void @llvm.lifetime.end.p0(i64 4, ptr %8) #7
  call void @llvm.lifetime.end.p0(i64 8, ptr %7) #7
  call void @llvm.lifetime.end.p0(i64 4, ptr %6) #7
  call void @llvm.lifetime.end.p0(i64 8, ptr %5) #7
  call void @llvm.lifetime.end.p0(i64 4, ptr %4) #7
  call void @llvm.lifetime.end.p0(i64 8, ptr %3) #7
  ret i64 %85
}