; Function Attrs: nounwind uwtable
define dso_local i64 @array_sample(ptr noundef readonly captures(none) %0) local_unnamed_addr #0 {
  %2 = getelementptr inbounds nuw i8, ptr %0, i64 32
  %3 = load i64, ptr %2, align 8
  %4 = inttoptr i64 %3 to ptr
  %5 = tail call ptr @pg_detoast_datum(ptr noundef %4) #10
  %6 = getelementptr inbounds nuw i8, ptr %0, i64 48
  %7 = load i64, ptr %6, align 8
  %8 = trunc i64 %7 to i32
  %9 = getelementptr inbounds nuw i8, ptr %5, i64 4
  %10 = load i32, ptr %9, align 4
  %11 = icmp slt i32 %10, 1
  br i1 %11, label %15, label %12

12:                                               ; preds = %1
  %13 = getelementptr inbounds nuw i8, ptr %5, i64 16
  %14 = load i32, ptr %13, align 4
  br label %15

15:                                               ; preds = %1, %12
  %16 = phi i32 [ %14, %12 ], [ 0, %1 ]
  %17 = icmp slt i32 %8, 0
  %18 = icmp slt i32 %16, %8
  %or.cond = select i1 %17, i1 true, i1 %18
  br i1 %or.cond, label %19, label %23

19:                                               ; preds = %15
  %20 = tail call zeroext i1 @errstart_cold(i32 noundef 21, ptr noundef null) #11
  tail call void @llvm.assume(i1 %20)
  %21 = tail call i32 @errcode(i32 noundef 50856066) #10
  %22 = tail call i32 (ptr, ...) @errmsg(ptr noundef nonnull @.str.16, i32 noundef %16) #10
  tail call void @errfinish(ptr noundef nonnull @.str.1, i32 noundef 1735, ptr noundef nonnull @__func__.array_sample) #10
  unreachable

23:                                               ; preds = %15
  %24 = getelementptr inbounds nuw i8, ptr %5, i64 12
  %25 = load i32, ptr %24, align 4
  %26 = load ptr, ptr %0, align 8
  %27 = getelementptr inbounds nuw i8, ptr %26, i64 24
  %28 = load ptr, ptr %27, align 8
  %29 = icmp eq ptr %28, null
  br i1 %29, label %32, label %30

30:                                               ; preds = %23
  %31 = load i32, ptr %28, align 8
  %.not = icmp eq i32 %31, %25
  br i1 %.not, label %36, label %32

32:                                               ; preds = %30, %23
  %33 = tail call ptr @lookup_type_cache(i32 noundef %25, i32 noundef 0) #10
  %34 = load ptr, ptr %0, align 8
  %35 = getelementptr inbounds nuw i8, ptr %34, i64 24
  store ptr %33, ptr %35, align 8
  br label %36

36:                                               ; preds = %32, %30
  %.0 = phi ptr [ %33, %32 ], [ %28, %30 ]
  %37 = tail call fastcc ptr @array_shuffle_n(ptr noundef nonnull %5, i32 noundef %8, i1 noundef zeroext false, i32 noundef %25, ptr noundef %.0)
  %38 = ptrtoint ptr %37 to i64
  ret i64 %38
}